; Function Attrs: mustprogress sspstrong uwtable
define void @_ZN3tbb6detail2r114itt_region_endENS0_2d115itt_domain_enumEPvy(i32 noundef %0, ptr noundef %1, i64 noundef %2) local_unnamed_addr #0 personality ptr @__gxx_personality_v0 {
  %4 = alloca i8, align 1
  %5 = alloca %struct.___itt_id, align 8
  %6 = zext i32 %0 to i64
  %7 = getelementptr inbounds nuw [3 x ptr], ptr @_ZN3tbb6detail2r1L11tbb_domainsE, i64 0, i64 %6
  %8 = load ptr, ptr %7, align 8, !tbaa !9
  %9 = icmp eq ptr %8, null
  br i1 %9, label %10, label %_ZN3tbb6detail2r1L14get_itt_domainENS0_2d115itt_domain_enumE.exit.thread

10:                                               ; preds = %3
  %11 = load atomic i8, ptr @_ZN3tbb6detail2r1L22ITT_InitializationDoneE.0 seq_cst, align 1
  %12 = trunc i8 %11 to i1
  br i1 %12, label %_ZN3tbb6detail2r1L14get_itt_domainENS0_2d115itt_domain_enumE.exit, label %13

13:                                               ; preds = %10
  call void @llvm.lifetime.start.p0(i64 1, ptr nonnull %4)
  %14 = atomicrmw xchg ptr @_ZN3tbb6detail2r114__TBB_InitOnce18InitializationLockE, i8 1 seq_cst, align 1
  %15 = icmp ne i8 %14, 0
  store i1 %15, ptr %4, align 1
  %.0..0..0..0..0..0..0..0..0..0..i2.i.i.i = load i8, ptr %4, align 1, !tbaa !3, !range !23, !noundef !24
  %16 = trunc nuw i8 %.0..0..0..0..0..0..0..0..0..0..i2.i.i.i to i1
  call void @llvm.lifetime.end.p0(i64 1, ptr nonnull %4)
  br i1 %16, label %.lr.ph.i.i.i, label %_ZN3tbb6detail2r114__TBB_InitOnce4lockEv.exit.i.i

.lr.ph.i.i.i:                                     ; preds = %13, %_ZN3tbb6detail2d014atomic_backoff5pauseEv.exit.i.i.i
  %.sroa.0.03.i.i.i = phi i32 [ %.sroa.0.1.i.i.i, %_ZN3tbb6detail2d014atomic_backoff5pauseEv.exit.i.i.i ], [ 1, %13 ]
  %17 = icmp slt i32 %.sroa.0.03.i.i.i, 17
  br i1 %17, label %18, label %23

18:                                               ; preds = %.lr.ph.i.i.i
  %19 = icmp sgt i32 %.sroa.0.03.i.i.i, 0
  br i1 %19, label %.lr.ph.i.i.i.i.i, label %_ZN3tbb6detail2d0L13machine_pauseEi.exit.i.i.i.i

.lr.ph.i.i.i.i.i:                                 ; preds = %18, %.lr.ph.i.i.i.i.i
  %.01.i.i.i.i.i = phi i32 [ %20, %.lr.ph.i.i.i.i.i ], [ %.sroa.0.03.i.i.i, %18 ]
  %20 = add nsw i32 %.01.i.i.i.i.i, -1
  tail call void @llvm.x86.sse2.pause()
  %21 = icmp samesign ugt i32 %.01.i.i.i.i.i, 1
  br i1 %21, label %.lr.ph.i.i.i.i.i, label %_ZN3tbb6detail2d0L13machine_pauseEi.exit.i.i.i.i, !llvm.loop !25

_ZN3tbb6detail2d0L13machine_pauseEi.exit.i.i.i.i: ; preds = %.lr.ph.i.i.i.i.i, %18
  %22 = shl nsw i32 %.sroa.0.03.i.i.i, 1
  br label %_ZN3tbb6detail2d014atomic_backoff5pauseEv.exit.i.i.i

23:                                               ; preds = %.lr.ph.i.i.i
  %24 = tail call noundef i32 @sched_yield() #4
  br label %_ZN3tbb6detail2d014atomic_backoff5pauseEv.exit.i.i.i

_ZN3tbb6detail2d014atomic_backoff5pauseEv.exit.i.i.i: ; preds = %23, %_ZN3tbb6detail2d0L13machine_pauseEi.exit.i.i.i.i
  %.sroa.0.1.i.i.i = phi i32 [ %22, %_ZN3tbb6detail2d0L13machine_pauseEi.exit.i.i.i.i ], [ %.sroa.0.03.i.i.i, %23 ]
  call void @llvm.lifetime.start.p0(i64 1, ptr nonnull %4)
  %25 = atomicrmw xchg ptr @_ZN3tbb6detail2r114__TBB_InitOnce18InitializationLockE, i8 1 seq_cst, align 1
  %26 = icmp ne i8 %25, 0
  store i1 %26, ptr %4, align 1
  %.0..0..0..0..0..0..0..0..0..0..i.i.i.i = load i8, ptr %4, align 1, !tbaa !3, !range !23, !noundef !24
  %27 = trunc nuw i8 %.0..0..0..0..0..0..0..0..0..0..i.i.i.i to i1
  call void @llvm.lifetime.end.p0(i64 1, ptr nonnull %4)
  br i1 %27, label %.lr.ph.i.i.i, label %_ZN3tbb6detail2r114__TBB_InitOnce4lockEv.exit.i.i, !llvm.loop !26

_ZN3tbb6detail2r114__TBB_InitOnce4lockEv.exit.i.i: ; preds = %_ZN3tbb6detail2d014atomic_backoff5pauseEv.exit.i.i.i, %13
  tail call void @_ZN3tbb6detail2r133ITT_DoUnsafeOneTimeInitializationEv()
  store atomic i8 0, ptr @_ZN3tbb6detail2r114__TBB_InitOnce18InitializationLockE release, align 1
  br label %_ZN3tbb6detail2r1L14get_itt_domainENS0_2d115itt_domain_enumE.exit

_ZN3tbb6detail2r1L14get_itt_domainENS0_2d115itt_domain_enumE.exit: ; preds = %10, %_ZN3tbb6detail2r114__TBB_InitOnce4lockEv.exit.i.i
  %.pr = load ptr, ptr %7, align 8, !tbaa !9
  %.not = icmp eq ptr %.pr, null
  br i1 %.not, label %35, label %_ZN3tbb6detail2r1L14get_itt_domainENS0_2d115itt_domain_enumE.exit.thread

_ZN3tbb6detail2r1L14get_itt_domainENS0_2d115itt_domain_enumE.exit.thread: ; preds = %3, %_ZN3tbb6detail2r1L14get_itt_domainENS0_2d115itt_domain_enumE.exit
  %28 = phi ptr [ %.pr, %_ZN3tbb6detail2r1L14get_itt_domainENS0_2d115itt_domain_enumE.exit ], [ %8, %3 ]
  %29 = load volatile i32, ptr %28, align 8, !tbaa !11
  %30 = icmp ne i32 %29, 0
  %31 = load ptr, ptr @__itt_region_end_ptr__3_0, align 8
  %32 = icmp ne ptr %31, null
  %or.cond = select i1 %30, i1 %32, i1 false
  br i1 %or.cond, label %33, label %35

33:                                               ; preds = %_ZN3tbb6detail2r1L14get_itt_domainENS0_2d115itt_domain_enumE.exit.thread
  %34 = ptrtoint ptr %1 to i64
  store i64 %34, ptr %5, align 8, !tbaa !27
  %.sroa.5.0..sroa_idx = getelementptr inbounds nuw i8, ptr %5, i64 8
  store i64 %2, ptr %.sroa.5.0..sroa_idx, align 8, !tbaa !27
  %.sroa.6.0..sroa_idx = getelementptr inbounds nuw i8, ptr %5, i64 16
  store i64 0, ptr %.sroa.6.0..sroa_idx, align 8, !tbaa !27
  tail call void %31(ptr noundef nonnull %28, ptr noundef nonnull byval(%struct.___itt_id) align 8 %5)
  br label %35

35:                                               ; preds = %33, %_ZN3tbb6detail2r1L14get_itt_domainENS0_2d115itt_domain_enumE.exit.thread, %_ZN3tbb6detail2r1L14get_itt_domainENS0_2d115itt_domain_enumE.exit
  ret void
}